	.file	"DS18B20.c"
__SP_H__ = 0x3e
__SP_L__ = 0x3d
__SREG__ = 0x3f
__tmp_reg__ = 0
__zero_reg__ = 1
	.text
.Ltext0:
	.cfi_sections	.debug_frame
	.section	.text.onConvertTemperatureCommandSent,"ax",@progbits
.global	onConvertTemperatureCommandSent
	.type	onConvertTemperatureCommandSent, @function
onConvertTemperatureCommandSent:
.LFB19:
	.file 1 ".././DS18B20.c"
	.loc 1 116 0
	.cfi_startproc
/* prologue: function */
/* frame size = 0 */
/* stack size = 0 */
.L__stack_usage = 0
	.loc 1 117 0
	lds r30,internalDataReadTemperatureDS18B20+2
	lds r31,internalDataReadTemperatureDS18B20+2+1
	icall
.LVL0:
	ret
	.cfi_endproc
.LFE19:
	.size	onConvertTemperatureCommandSent, .-onConvertTemperatureCommandSent
	.section	.text.onReadyToSendReadScratchpadCommand,"ax",@progbits
.global	onReadyToSendReadScratchpadCommand
	.type	onReadyToSendReadScratchpadCommand, @function
onReadyToSendReadScratchpadCommand:
.LFB16:
	.loc 1 91 0
	.cfi_startproc
/* prologue: function */
/* frame size = 0 */
/* stack size = 0 */
.L__stack_usage = 0
	.loc 1 92 0
	lds r20,internalDataReadSP_DS18B20
	lds r21,internalDataReadSP_DS18B20+1
	ldi r18,lo8(gs(onReadScratchpadCommandSent))
	ldi r19,hi8(gs(onReadScratchpadCommandSent))
	ldi r22,lo8(1)
	ldi r24,lo8(-66)
	call writeByteToOneWireBus
.LVL1:
	ret
	.cfi_endproc
.LFE16:
	.size	onReadyToSendReadScratchpadCommand, .-onReadyToSendReadScratchpadCommand
	.section	.text.onReadyToSendConvertTemperatureCommand,"ax",@progbits
.global	onReadyToSendConvertTemperatureCommand
	.type	onReadyToSendConvertTemperatureCommand, @function
onReadyToSendConvertTemperatureCommand:
.LFB20:
	.loc 1 121 0
	.cfi_startproc
/* prologue: function */
/* frame size = 0 */
/* stack size = 0 */
.L__stack_usage = 0
	.loc 1 122 0
	lds r20,internalDataReadTemperatureDS18B20
	lds r21,internalDataReadTemperatureDS18B20+1
	ldi r18,lo8(gs(onConvertTemperatureCommandSent))
	ldi r19,hi8(gs(onConvertTemperatureCommandSent))
	ldi r22,lo8(1)
	ldi r24,lo8(68)
	call writeByteToOneWireBus
.LVL2:
	ret
	.cfi_endproc
.LFE20:
	.size	onReadyToSendConvertTemperatureCommand, .-onReadyToSendConvertTemperatureCommand
	.section	.text.onScratchpadReadyForTemperatureStorage,"ax",@progbits
.global	onScratchpadReadyForTemperatureStorage
	.type	onScratchpadReadyForTemperatureStorage, @function
onScratchpadReadyForTemperatureStorage:
.LFB18:
	.loc 1 107 0
	.cfi_startproc
	push r16
.LCFI0:
	.cfi_def_cfa_offset 3
	.cfi_offset 16, -2
	push r17
.LCFI1:
	.cfi_def_cfa_offset 4
	.cfi_offset 17, -3
	push r28
.LCFI2:
	.cfi_def_cfa_offset 5
	.cfi_offset 28, -4
	push r29
.LCFI3:
	.cfi_def_cfa_offset 6
	.cfi_offset 29, -5
/* prologue: function */
/* frame size = 0 */
/* stack size = 4 */
.L__stack_usage = 4
	.loc 1 108 0
	ldi r16,lo8(internalDataReadTemperatureDS18B20)
	ldi r17,hi8(internalDataReadTemperatureDS18B20)
	movw r30,r16
	ldd r26,Z+4
	ldd r27,Z+5
	ldi r28,lo8(internalDataReadSP_DS18B20)
	ldi r29,hi8(internalDataReadSP_DS18B20)
	ldd r30,Y+4
	ldd r31,Y+5
	ldd r24,Z+1
	ldi r25,0
	mov r25,r24
	clr r24
	ld r18,Z
	or r24,r18
	st X+,r24
	st X,r25
	.loc 1 110 0
	ldd r24,Y+4
	ldd r25,Y+5
	call free
.LVL3:
	.loc 1 111 0
	std Y+5,__zero_reg__
	std Y+4,__zero_reg__
	.loc 1 112 0
	movw r26,r16
	adiw r26,2
	ld r30,X+
	ld r31,X
	sbiw r26,2+1
	icall
.LVL4:
/* epilogue start */
	.loc 1 113 0
	pop r29
	pop r28
	pop r17
	pop r16
	ret
	.cfi_endproc
.LFE18:
	.size	onScratchpadReadyForTemperatureStorage, .-onScratchpadReadyForTemperatureStorage
	.section	.text.readEntireScratchpad,"ax",@progbits
.global	readEntireScratchpad
	.type	readEntireScratchpad, @function
readEntireScratchpad:
.LFB17:
	.loc 1 96 0
	.cfi_startproc
.LVL5:
/* prologue: function */
/* frame size = 0 */
/* stack size = 0 */
.L__stack_usage = 0
	.loc 1 99 0
	ldi r30,lo8(internalDataReadSP_DS18B20)
	ldi r31,hi8(internalDataReadSP_DS18B20)
	std Z+3,r19
	std Z+2,r18
	.loc 1 100 0
	std Z+7,r23
	std Z+6,r22
	.loc 1 101 0
	std Z+1,r25
	st Z,r24
	.loc 1 102 0
	std Z+5,r21
	std Z+4,r20
	.loc 1 103 0
	ldi r20,lo8(gs(onReadyToSendReadScratchpadCommand))
	ldi r21,hi8(gs(onReadyToSendReadScratchpadCommand))
.LVL6:
	call sendMatchRomCommand
.LVL7:
	ret
	.cfi_endproc
.LFE17:
	.size	readEntireScratchpad, .-readEntireScratchpad
	.section	.text.issueTemperatureConversion,"ax",@progbits
.global	issueTemperatureConversion
	.type	issueTemperatureConversion, @function
issueTemperatureConversion:
.LFB21:
	.loc 1 126 0
	.cfi_startproc
.LVL8:
/* prologue: function */
/* frame size = 0 */
/* stack size = 0 */
.L__stack_usage = 0
	movw r26,r20
	.loc 1 128 0
	ldi r30,lo8(internalDataReadTemperatureDS18B20)
	ldi r31,hi8(internalDataReadTemperatureDS18B20)
	std Z+3,r19
	std Z+2,r18
	.loc 1 129 0
	std Z+1,r25
	st Z,r24
	.loc 1 130 0
	tst r22
	breq .L7
	.loc 1 131 0
	ldi r22,lo8(gs(onReadyToSendConvertTemperatureCommand))
	ldi r23,hi8(gs(onReadyToSendConvertTemperatureCommand))
.LVL9:
	call sendSkipRomCommand
.LVL10:
	ret
.LVL11:
.L7:
	.loc 1 134 0
	sts internalDataReadTemperatureDS18B20+6+1,r21
	sts internalDataReadTemperatureDS18B20+6,r20
	.loc 1 135 0
	ldi r20,lo8(gs(onReadyToSendConvertTemperatureCommand))
	ldi r21,hi8(gs(onReadyToSendConvertTemperatureCommand))
.LVL12:
	movw r22,r26
.LVL13:
	call sendMatchRomCommand
.LVL14:
	ret
	.cfi_endproc
.LFE21:
	.size	issueTemperatureConversion, .-issueTemperatureConversion
	.section	.text.readTemperature,"ax",@progbits
.global	readTemperature
	.type	readTemperature, @function
readTemperature:
.LFB22:
	.loc 1 140 0
	.cfi_startproc
.LVL15:
	push r14
.LCFI4:
	.cfi_def_cfa_offset 3
	.cfi_offset 14, -2
	push r15
.LCFI5:
	.cfi_def_cfa_offset 4
	.cfi_offset 15, -3
	push r16
.LCFI6:
	.cfi_def_cfa_offset 5
	.cfi_offset 16, -4
	push r17
.LCFI7:
	.cfi_def_cfa_offset 6
	.cfi_offset 17, -5
	push r28
.LCFI8:
	.cfi_def_cfa_offset 7
	.cfi_offset 28, -6
	push r29
.LCFI9:
	.cfi_def_cfa_offset 8
	.cfi_offset 29, -7
/* prologue: function */
/* frame size = 0 */
/* stack size = 6 */
.L__stack_usage = 6
	movw r28,r24
	movw r14,r22
	.loc 1 141 0
	ldi r30,lo8(internalDataReadTemperatureDS18B20)
	ldi r31,hi8(internalDataReadTemperatureDS18B20)
	std Z+3,r17
	std Z+2,r16
	.loc 1 142 0
	std Z+5,r21
	std Z+4,r20
	.loc 1 143 0
	std Z+1,r25
	st Z,r24
	.loc 1 144 0
	std Z+7,r23
	std Z+6,r22
	.loc 1 145 0
	std Z+9,r19
	std Z+8,r18
	.loc 1 147 0
	ldi r24,lo8(9)
	ldi r25,0
.LVL16:
	call malloc
.LVL17:
	movw r16,r24
.LVL18:
	.loc 1 148 0
	or r24,r25
	brne .L10
	.loc 1 149 0
	call deathTrap
.LVL19:
.L10:
	.loc 1 150 0
	ldi r18,lo8(gs(onScratchpadReadyForTemperatureStorage))
	ldi r19,hi8(gs(onScratchpadReadyForTemperatureStorage))
	movw r20,r16
	movw r22,r14
	movw r24,r28
	call readEntireScratchpad
.LVL20:
/* epilogue start */
	.loc 1 151 0
	pop r29
	pop r28
.LVL21:
	pop r17
	pop r16
.LVL22:
	pop r15
	pop r14
.LVL23:
	ret
	.cfi_endproc
.LFE22:
	.size	readTemperature, .-readTemperature
	.section	.text.calculateCRC8,"ax",@progbits
.global	calculateCRC8
	.type	calculateCRC8, @function
calculateCRC8:
.LFB23:
	.loc 1 174 0
	.cfi_startproc
.LVL24:
/* prologue: function */
/* frame size = 0 */
/* stack size = 0 */
.L__stack_usage = 0
	.loc 1 176 0
	ldi r18,lo8(-1)
	add r18,r22
.LVL25:
	tst r22
	breq .L14
	mov r26,r24
	mov r27,r25
	ldi r24,0
.LVL26:
.L13:
.LBB2:
	.loc 1 177 0
	ld r30,X+
.LVL27:
	.loc 1 177 0
	eor r30,r24
	ldi r31,0
	subi r30,lo8(-(dscrc_table))
	sbci r31,hi8(-(dscrc_table))
.LVL28:
	.loc 1 177 0
/* #APP */
 ;  177 ".././DS18B20.c" 1
	lpm r24, Z
	
 ;  0 "" 2
.LVL29:
/* #NOAPP */
.LBE2:
	.loc 1 176 0
.LVL30:
	subi r18,1
	brcc .L13
	ret
.LVL31:
.L14:
	.loc 1 175 0
	ldi r24,0
.LVL32:
	.loc 1 179 0
	ret
	.cfi_endproc
.LFE23:
	.size	calculateCRC8, .-calculateCRC8
	.section	.text.onScratchpadRead,"ax",@progbits
.global	onScratchpadRead
	.type	onScratchpadRead, @function
onScratchpadRead:
.LFB12:
	.loc 1 58 0
	.cfi_startproc
	push r28
.LCFI10:
	.cfi_def_cfa_offset 3
	.cfi_offset 28, -2
	push r29
.LCFI11:
	.cfi_def_cfa_offset 4
	.cfi_offset 29, -3
/* prologue: function */
/* frame size = 0 */
/* stack size = 2 */
.L__stack_usage = 2
	.loc 1 59 0
	ldi r28,lo8(internalDataReadSP_DS18B20)
	ldi r29,hi8(internalDataReadSP_DS18B20)
	ldi r22,lo8(8)
	ldd r24,Y+4
	ldd r25,Y+5
	call calculateCRC8
.LVL33:
	.loc 1 60 0
	ldd r30,Y+4
	ldd r31,Y+5
	ldd r25,Z+8
	cp r24,r25
	breq .L17
	.loc 1 61 0
	lds r30,internalDataReadTemperatureDS18B20+8
	lds r31,internalDataReadTemperatureDS18B20+8+1
	ldi r24,lo8(1)
.LVL34:
	st Z,r24
	rjmp .L18
.LVL35:
.L17:
	.loc 1 63 0
	lds r30,internalDataReadTemperatureDS18B20+8
	lds r31,internalDataReadTemperatureDS18B20+8+1
	st Z,__zero_reg__
.LVL36:
.L18:
	.loc 1 64 0
	lds r30,internalDataReadSP_DS18B20+2
	lds r31,internalDataReadSP_DS18B20+2+1
	icall
.LVL37:
/* epilogue start */
	.loc 1 65 0
	pop r29
	pop r28
	ret
	.cfi_endproc
.LFE12:
	.size	onScratchpadRead, .-onScratchpadRead
	.section	.text.readScratchpadRegisters,"ax",@progbits
.global	readScratchpadRegisters
	.type	readScratchpadRegisters, @function
readScratchpadRegisters:
.LFB14:
	.loc 1 75 0
	.cfi_startproc
.LVL38:
/* prologue: function */
/* frame size = 0 */
/* stack size = 0 */
.L__stack_usage = 0
	.loc 1 77 0
	cpse r24,__zero_reg__
	rjmp .L23
	.loc 1 79 0
	lds r25,positionWithinScratchpad.2597
	cpi r25,lo8(9)
	brsh .L21
	rjmp .L20
.L23:
	ldi r25,0
.L20:
	.loc 1 80 0
	ldi r30,lo8(internalDataReadSP_DS18B20)
	ldi r31,hi8(internalDataReadSP_DS18B20)
	ld r20,Z
	ldd r21,Z+1
	ldd __tmp_reg__,Z+4
	ldd r31,Z+5
	mov r30,__tmp_reg__
	ldi r24,lo8(1)
.LVL39:
	add r24,r25
	sts positionWithinScratchpad.2597,r24
	ldi r18,lo8(gs(readNextScratchpadByte))
	ldi r19,hi8(gs(readNextScratchpadByte))
	ldi r22,lo8(1)
	movw r26,r30
	add r26,r25
	adc r27,__zero_reg__
	movw r24,r26
	call readByteFromOneWireBus
.LVL40:
	ret
.LVL41:
.L21:
	.loc 1 82 0
	call onScratchpadRead
.LVL42:
	ret
	.cfi_endproc
.LFE14:
	.size	readScratchpadRegisters, .-readScratchpadRegisters
	.section	.text.readNextScratchpadByte,"ax",@progbits
.global	readNextScratchpadByte
	.type	readNextScratchpadByte, @function
readNextScratchpadByte:
.LFB13:
	.loc 1 70 0
	.cfi_startproc
/* prologue: function */
/* frame size = 0 */
/* stack size = 0 */
.L__stack_usage = 0
	.loc 1 71 0
	ldi r24,0
	call readScratchpadRegisters
.LVL43:
	ret
	.cfi_endproc
.LFE13:
	.size	readNextScratchpadByte, .-readNextScratchpadByte
	.section	.text.onReadScratchpadCommandSent,"ax",@progbits
.global	onReadScratchpadCommandSent
	.type	onReadScratchpadCommandSent, @function
onReadScratchpadCommandSent:
.LFB15:
	.loc 1 86 0
	.cfi_startproc
/* prologue: function */
/* frame size = 0 */
/* stack size = 0 */
.L__stack_usage = 0
	.loc 1 87 0
	ldi r24,lo8(1)
	call readScratchpadRegisters
.LVL44:
	ret
	.cfi_endproc
.LFE15:
	.size	onReadScratchpadCommandSent, .-onReadScratchpadCommandSent
	.section	.text.getSignOfSigned7Point4Fixed,"ax",@progbits
.global	getSignOfSigned7Point4Fixed
	.type	getSignOfSigned7Point4Fixed, @function
getSignOfSigned7Point4Fixed:
.LFB24:
	.loc 1 182 0
	.cfi_startproc
.LVL45:
/* prologue: function */
/* frame size = 0 */
/* stack size = 0 */
.L__stack_usage = 0
	.loc 1 183 0
	clr r24
	andi r25,248
.LVL46:
	or r24,r25
	brne .L28
	ldi r24,lo8(43)
	ret
.L28:
	ldi r24,lo8(45)
	.loc 1 184 0
	ret
	.cfi_endproc
.LFE24:
	.size	getSignOfSigned7Point4Fixed, .-getSignOfSigned7Point4Fixed
	.section	.text.getIntegerPartOfSigned7Point4Fixed,"ax",@progbits
.global	getIntegerPartOfSigned7Point4Fixed
	.type	getIntegerPartOfSigned7Point4Fixed, @function
getIntegerPartOfSigned7Point4Fixed:
.LFB25:
	.loc 1 187 0
	.cfi_startproc
.LVL47:
/* prologue: function */
/* frame size = 0 */
/* stack size = 0 */
.L__stack_usage = 0
	.loc 1 188 0
	tst r25
	brge .L30
	neg r25
	neg r24
	sbc r25,__zero_reg__
.LVL48:
.L30:
	swap r25
	swap r24
	andi r24,0x0f
	eor r24,r25
	andi r25,0x0f
	eor r24,r25
	.loc 1 189 0
	andi r24,lo8(127)
	ret
	.cfi_endproc
.LFE25:
	.size	getIntegerPartOfSigned7Point4Fixed, .-getIntegerPartOfSigned7Point4Fixed
	.section	.text.getNonIntegerPartOfSigned7Point4Fixed,"ax",@progbits
.global	getNonIntegerPartOfSigned7Point4Fixed
	.type	getNonIntegerPartOfSigned7Point4Fixed, @function
getNonIntegerPartOfSigned7Point4Fixed:
.LFB26:
	.loc 1 192 0
	.cfi_startproc
.LVL49:
/* prologue: function */
/* frame size = 0 */
/* stack size = 0 */
.L__stack_usage = 0
	.loc 1 193 0
	tst r25
	brge .L32
	neg r25
	neg r24
	sbc r25,__zero_reg__
.LVL50:
.L32:
	andi r24,15
	clr r25
	.loc 1 194 0
	ldi r18,lo8(113)
	ldi r19,lo8(2)
	movw r20,r24
	mul r20,r18
	movw r24,r0
	mul r20,r19
	add r25,r0
	mul r21,r18
	add r25,r0
	clr r1
	ret
	.cfi_endproc
.LFE26:
	.size	getNonIntegerPartOfSigned7Point4Fixed, .-getNonIntegerPartOfSigned7Point4Fixed
	.section	.bss.positionWithinScratchpad.2597,"aw",@nobits
	.type	positionWithinScratchpad.2597, @object
	.size	positionWithinScratchpad.2597, 1
positionWithinScratchpad.2597:
	.zero	1
	.section	.progmem.data.dscrc_table,"a",@progbits
	.type	dscrc_table, @object
	.size	dscrc_table, 256
dscrc_table:
	.byte	0
	.byte	94
	.byte	-68
	.byte	-30
	.byte	97
	.byte	63
	.byte	-35
	.byte	-125
	.byte	-62
	.byte	-100
	.byte	126
	.byte	32
	.byte	-93
	.byte	-3
	.byte	31
	.byte	65
	.byte	-99
	.byte	-61
	.byte	33
	.byte	127
	.byte	-4
	.byte	-94
	.byte	64
	.byte	30
	.byte	95
	.byte	1
	.byte	-29
	.byte	-67
	.byte	62
	.byte	96
	.byte	-126
	.byte	-36
	.byte	35
	.byte	125
	.byte	-97
	.byte	-63
	.byte	66
	.byte	28
	.byte	-2
	.byte	-96
	.byte	-31
	.byte	-65
	.byte	93
	.byte	3
	.byte	-128
	.byte	-34
	.byte	60
	.byte	98
	.byte	-66
	.byte	-32
	.byte	2
	.byte	92
	.byte	-33
	.byte	-127
	.byte	99
	.byte	61
	.byte	124
	.byte	34
	.byte	-64
	.byte	-98
	.byte	29
	.byte	67
	.byte	-95
	.byte	-1
	.byte	70
	.byte	24
	.byte	-6
	.byte	-92
	.byte	39
	.byte	121
	.byte	-101
	.byte	-59
	.byte	-124
	.byte	-38
	.byte	56
	.byte	102
	.byte	-27
	.byte	-69
	.byte	89
	.byte	7
	.byte	-37
	.byte	-123
	.byte	103
	.byte	57
	.byte	-70
	.byte	-28
	.byte	6
	.byte	88
	.byte	25
	.byte	71
	.byte	-91
	.byte	-5
	.byte	120
	.byte	38
	.byte	-60
	.byte	-102
	.byte	101
	.byte	59
	.byte	-39
	.byte	-121
	.byte	4
	.byte	90
	.byte	-72
	.byte	-26
	.byte	-89
	.byte	-7
	.byte	27
	.byte	69
	.byte	-58
	.byte	-104
	.byte	122
	.byte	36
	.byte	-8
	.byte	-90
	.byte	68
	.byte	26
	.byte	-103
	.byte	-57
	.byte	37
	.byte	123
	.byte	58
	.byte	100
	.byte	-122
	.byte	-40
	.byte	91
	.byte	5
	.byte	-25
	.byte	-71
	.byte	-116
	.byte	-46
	.byte	48
	.byte	110
	.byte	-19
	.byte	-77
	.byte	81
	.byte	15
	.byte	78
	.byte	16
	.byte	-14
	.byte	-84
	.byte	47
	.byte	113
	.byte	-109
	.byte	-51
	.byte	17
	.byte	79
	.byte	-83
	.byte	-13
	.byte	112
	.byte	46
	.byte	-52
	.byte	-110
	.byte	-45
	.byte	-115
	.byte	111
	.byte	49
	.byte	-78
	.byte	-20
	.byte	14
	.byte	80
	.byte	-81
	.byte	-15
	.byte	19
	.byte	77
	.byte	-50
	.byte	-112
	.byte	114
	.byte	44
	.byte	109
	.byte	51
	.byte	-47
	.byte	-113
	.byte	12
	.byte	82
	.byte	-80
	.byte	-18
	.byte	50
	.byte	108
	.byte	-114
	.byte	-48
	.byte	83
	.byte	13
	.byte	-17
	.byte	-79
	.byte	-16
	.byte	-82
	.byte	76
	.byte	18
	.byte	-111
	.byte	-49
	.byte	45
	.byte	115
	.byte	-54
	.byte	-108
	.byte	118
	.byte	40
	.byte	-85
	.byte	-11
	.byte	23
	.byte	73
	.byte	8
	.byte	86
	.byte	-76
	.byte	-22
	.byte	105
	.byte	55
	.byte	-43
	.byte	-117
	.byte	87
	.byte	9
	.byte	-21
	.byte	-75
	.byte	54
	.byte	104
	.byte	-118
	.byte	-44
	.byte	-107
	.byte	-53
	.byte	41
	.byte	119
	.byte	-12
	.byte	-86
	.byte	72
	.byte	22
	.byte	-23
	.byte	-73
	.byte	85
	.byte	11
	.byte	-120
	.byte	-42
	.byte	52
	.byte	106
	.byte	43
	.byte	117
	.byte	-105
	.byte	-55
	.byte	74
	.byte	20
	.byte	-10
	.byte	-88
	.byte	116
	.byte	42
	.byte	-56
	.byte	-106
	.byte	21
	.byte	75
	.byte	-87
	.byte	-9
	.byte	-74
	.byte	-24
	.byte	10
	.byte	84
	.byte	-41
	.byte	-119
	.byte	107
	.byte	53
	.comm	internalDataReadTemperatureDS18B20,10,1
	.comm	internalDataDS18B20,7,1
	.comm	internalDataReadSP_DS18B20,8,1
	.text
.Letext0:
	.file 2 "c:\\program files (x86)\\atmel\\studio\\7.0\\toolchain\\avr8\\avr8-gnu-toolchain\\avr\\include\\stdint.h"
	.file 3 ".././marcsLanguageExtension.h"
	.file 4 ".././GPIO Pin.h"
	.file 5 ".././DS18B20.h"
	.file 6 ".././OneWireFrontEnd.h"
	.file 7 "c:\\program files (x86)\\atmel\\studio\\7.0\\toolchain\\avr8\\avr8-gnu-toolchain\\avr\\include\\stdlib.h"