	.file	"main.c"
__SP_H__ = 0x3e
__SP_L__ = 0x3d
__SREG__ = 0x3f
__tmp_reg__ = 0
__zero_reg__ = 1
	.text
.Ltext0:
	.cfi_sections	.debug_frame
	.section	.text.onTemperatureRead,"ax",@progbits
.global	onTemperatureRead
	.type	onTemperatureRead, @function
onTemperatureRead:
.LFB18:
	.file 1 ".././main.c"
	.loc 1 125 0
	.cfi_startproc
/* prologue: function */
/* frame size = 0 */
/* stack size = 0 */
.L__stack_usage = 0
	.loc 1 126 0
	lds r30,indexOfTemperatureSensorBeingRead
	ldi r31,0
	lsl r30
	rol r31
	subi r30,lo8(-(deviceIDs))
	sbci r31,hi8(-(deviceIDs))
	ld r20,Z
	ldd r21,Z+1
	ldi r18,lo8(gs(onTemperatureConversionStarted))
	ldi r19,hi8(gs(onTemperatureConversionStarted))
	ldi r22,0
	ldi r24,lo8(onewirepin)
	ldi r25,hi8(onewirepin)
	call issueTemperatureConversion
.LVL0:
	ret
	.cfi_endproc
.LFE18:
	.size	onTemperatureRead, .-onTemperatureRead
	.section	.text.onAllTemperaturesRead,"ax",@progbits
.global	onAllTemperaturesRead
	.type	onAllTemperaturesRead, @function
onAllTemperaturesRead:
.LFB15:
	.loc 1 69 0
	.cfi_startproc
/* prologue: function */
/* frame size = 0 */
/* stack size = 0 */
.L__stack_usage = 0
	.loc 1 70 0
/* #APP */
 ;  70 ".././main.c" 1
	nop

 ;  0 "" 2
/* #NOAPP */
	ret
	.cfi_endproc
.LFE15:
	.size	onAllTemperaturesRead, .-onAllTemperaturesRead
	.section	.rodata.str1.1,"aMS",@progbits,1
.LC0:
	.string	"#%2i:%c%3i.%04idegC Err: %c\r\n"
	.section	.text.sendTelemetryViaUSART0,"ax",@progbits
.global	sendTelemetryViaUSART0
	.type	sendTelemetryViaUSART0, @function
sendTelemetryViaUSART0:
.LFB16:
	.loc 1 74 0
	.cfi_startproc
	push r16
.LCFI0:
	.cfi_def_cfa_offset 3
	.cfi_offset 16, -2
	push r17
.LCFI1:
	.cfi_def_cfa_offset 4
	.cfi_offset 17, -3
	push r28
.LCFI2:
	.cfi_def_cfa_offset 5
	.cfi_offset 28, -4
	push r29
.LCFI3:
	.cfi_def_cfa_offset 6
	.cfi_offset 29, -5
/* prologue: function */
/* frame size = 0 */
/* stack size = 4 */
.L__stack_usage = 4
	.loc 1 75 0
	lds r24,indexOfTemperatureSensorBeingRead
	ldi r25,0
	lsl r24
	rol r25
	movw r30,r24
	subi r30,lo8(-(currentTemperatures))
	sbci r31,hi8(-(currentTemperatures))
	ld r28,Z
	ldd r29,Z+1
.LVL1:
	.loc 1 81 0
	movw r30,r24
	subi r30,lo8(-(deviceIDs))
	sbci r31,hi8(-(deviceIDs))
	ld __tmp_reg__,Z+
	ld r31,Z
	mov r30,__tmp_reg__
	ld r24,Z
	cpi r24,lo8(40)
	brne .L4
	.loc 1 83 0
	movw r24,r28
	call getSignOfSigned7Point4Fixed
.LVL2:
	mov r17,r24
.LVL3:
	.loc 1 84 0
	movw r24,r28
	call getIntegerPartOfSigned7Point4Fixed
.LVL4:
	mov r16,r24
.LVL5:
	.loc 1 85 0
	movw r24,r28
	call getNonIntegerPartOfSigned7Point4Fixed
.LVL6:
	rjmp .L5
.LVL7:
.L4:
	.loc 1 87 0
	cpi r24,lo8(59)
	brne .L6
	.loc 1 89 0
	movw r24,r28
	call getSignOfSigned11Point2Fixed
.LVL8:
	mov r17,r24
.LVL9:
	.loc 1 90 0
	movw r24,r28
	call getIntegerPartOfSigned11Point2Fixed
.LVL10:
	mov r16,r24
.LVL11:
	.loc 1 91 0
	movw r24,r28
	call getNonIntegerPartOfSigned11Point2Fixed
.LVL12:
	rjmp .L5
.LVL13:
.L6:
	.loc 1 95 0
	call deathTrap
.LVL14:
	.loc 1 79 0
	ldi r24,lo8(-1)
	ldi r25,lo8(-1)
	.loc 1 78 0
	ldi r16,lo8(-1)
	.loc 1 77 0
	ldi r17,lo8(63)
.LVL15:
.L5:
	.loc 1 100 0
	lds r18,indexOfTemperatureSensorBeingRead
	mov r30,r18
	ldi r31,0
	subi r30,lo8(-(errorBits))
	sbci r31,hi8(-(errorBits))
	ld r19,Z
	cpse r19,__zero_reg__
	rjmp .L8
	ldi r19,lo8(48)
	ldi r20,0
	rjmp .L7
.L8:
	ldi r19,lo8(69)
	ldi r20,0
.L7:
	.loc 1 100 0 is_stmt 0 discriminator 4
	push r20
.LCFI4:
	.cfi_def_cfa_offset 7
	push r19
.LCFI5:
	.cfi_def_cfa_offset 8
	push r25
.LCFI6:
	.cfi_def_cfa_offset 9
	push r24
.LCFI7:
	.cfi_def_cfa_offset 10
	push __zero_reg__
.LCFI8:
	.cfi_def_cfa_offset 11
	push r16
.LCFI9:
	.cfi_def_cfa_offset 12
	push __zero_reg__
.LCFI10:
	.cfi_def_cfa_offset 13
	push r17
.LCFI11:
	.cfi_def_cfa_offset 14
	push __zero_reg__
.LCFI12:
	.cfi_def_cfa_offset 15
	push r18
.LCFI13:
	.cfi_def_cfa_offset 16
	ldi r24,lo8(.LC0)
	ldi r25,hi8(.LC0)
.LVL16:
	push r25
.LCFI14:
	.cfi_def_cfa_offset 17
	push r24
.LCFI15:
	.cfi_def_cfa_offset 18
	lds r24,telemetryString+1
	push r24
.LCFI16:
	.cfi_def_cfa_offset 19
	lds r24,telemetryString
	push r24
.LCFI17:
	.cfi_def_cfa_offset 20
	call sprintf
.LVL17:
	.loc 1 101 0 is_stmt 1 discriminator 4
	lds r24,telemetryString
	lds r25,telemetryString+1
	movw r30,r24
	0:
	ld __tmp_reg__,Z+
	tst __tmp_reg__
	brne 0b
	sbiw r30,1
	movw r22,r30
	sub r22,r24
	sbc r23,r25
	call USART0_SendString
.LVL18:
	.loc 1 102 0 discriminator 4
	in r24,__SP_L__
	in r25,__SP_H__
	adiw r24,14
	in __tmp_reg__,__SREG__
	cli
	out __SP_H__,r25
	out __SREG__,__tmp_reg__
	out __SP_L__,r24
.LCFI18:
	.cfi_def_cfa_offset 6
/* epilogue start */
	pop r29
	pop r28
.LVL19:
	pop r17
.LVL20:
	pop r16
.LVL21:
	ret
	.cfi_endproc
.LFE16:
	.size	sendTelemetryViaUSART0, .-sendTelemetryViaUSART0
	.section	.text.startTemperatureConversionAndReadoutCycle,"ax",@progbits
.global	startTemperatureConversionAndReadoutCycle
	.type	startTemperatureConversionAndReadoutCycle, @function
startTemperatureConversionAndReadoutCycle:
.LFB19:
	.loc 1 130 0
	.cfi_startproc
	push r16
.LCFI19:
	.cfi_def_cfa_offset 3
	.cfi_offset 16, -2
	push r17
.LCFI20:
	.cfi_def_cfa_offset 4
	.cfi_offset 17, -3
/* prologue: function */
/* frame size = 0 */
/* stack size = 2 */
.L__stack_usage = 2
	.loc 1 132 0
	lds r24,indexOfTemperatureSensorBeingRead
	ldi r25,0
	movw r18,r24
	subi r18,lo8(-(errorBits))
	sbci r19,hi8(-(errorBits))
	ldi r20,lo8(1)
	movw r30,r18
	st Z,r20
	.loc 1 133 0
	lsl r24
	rol r25
	movw r20,r24
	subi r20,lo8(-(currentTemperatures))
	sbci r21,hi8(-(currentTemperatures))
	movw r30,r24
	subi r30,lo8(-(deviceIDs))
	sbci r31,hi8(-(deviceIDs))
	ld r22,Z
	ldd r23,Z+1
	ldi r16,lo8(gs(onTemperatureRead))
	ldi r17,hi8(gs(onTemperatureRead))
	ldi r24,lo8(onewirepin)
	ldi r25,hi8(onewirepin)
	call readTemperature
.LVL22:
/* epilogue start */
	.loc 1 134 0
	pop r17
	pop r16
	ret
	.cfi_endproc
.LFE19:
	.size	startTemperatureConversionAndReadoutCycle, .-startTemperatureConversionAndReadoutCycle
	.section	.text.onOneSecondHasElapsedEvent,"ax",@progbits
.global	onOneSecondHasElapsedEvent
	.type	onOneSecondHasElapsedEvent, @function
onOneSecondHasElapsedEvent:
.LFB13:
	.loc 1 49 0
	.cfi_startproc
/* prologue: function */
/* frame size = 0 */
/* stack size = 0 */
.L__stack_usage = 0
	.loc 1 50 0
	lds r24,uptimeInSeconds
	lds r25,uptimeInSeconds+1
	lds r26,uptimeInSeconds+2
	lds r27,uptimeInSeconds+3
	adiw r24,1
	adc r26,__zero_reg__
	adc r27,__zero_reg__
	sts uptimeInSeconds,r24
	sts uptimeInSeconds+1,r25
	sts uptimeInSeconds+2,r26
	sts uptimeInSeconds+3,r27
	.loc 1 51 0
	call startTemperatureConversionAndReadoutCycle
.LVL23:
	ret
	.cfi_endproc
.LFE13:
	.size	onOneSecondHasElapsedEvent, .-onOneSecondHasElapsedEvent
	.section	.text.timingGeneratorForOneSecond,"ax",@progbits
.global	timingGeneratorForOneSecond
	.type	timingGeneratorForOneSecond, @function
timingGeneratorForOneSecond:
.LFB14:
	.loc 1 55 0
	.cfi_startproc
/* prologue: function */
/* frame size = 0 */
/* stack size = 0 */
.L__stack_usage = 0
	.loc 1 58 0
	lds r24,remainingNumberOfInterruptsForOneSecond.2619
	lds r25,remainingNumberOfInterruptsForOneSecond.2619+1
	or r24,r25
	brne .L12
	.loc 1 60 0
	ldi r24,lo8(-48)
	ldi r25,lo8(7)
	sts remainingNumberOfInterruptsForOneSecond.2619+1,r25
	sts remainingNumberOfInterruptsForOneSecond.2619,r24
	.loc 1 61 0
	call onOneSecondHasElapsedEvent
.LVL24:
.L12:
	.loc 1 63 0
	lds r24,remainingNumberOfInterruptsForOneSecond.2619
	lds r25,remainingNumberOfInterruptsForOneSecond.2619+1
	sbiw r24,1
	sts remainingNumberOfInterruptsForOneSecond.2619+1,r25
	sts remainingNumberOfInterruptsForOneSecond.2619,r24
	ret
	.cfi_endproc
.LFE14:
	.size	timingGeneratorForOneSecond, .-timingGeneratorForOneSecond
	.section	.rodata.str1.1
.LC1:
	.string	"\r\n\r\n"
.LC2:
	.string	"!!Uptime [s]= %-10i \r\n"
	.section	.text.onTemperatureConversionStarted,"ax",@progbits
.global	onTemperatureConversionStarted
	.type	onTemperatureConversionStarted, @function
onTemperatureConversionStarted:
.LFB17:
	.loc 1 105 0
	.cfi_startproc
/* prologue: function */
/* frame size = 0 */
/* stack size = 0 */
.L__stack_usage = 0
	.loc 1 106 0
	lds r24,indexOfTemperatureSensorBeingRead
	cpi r24,lo8(10)
	brsh .L14
	.loc 1 108 0
	call sendTelemetryViaUSART0
.LVL25:
	.loc 1 109 0
	lds r24,indexOfTemperatureSensorBeingRead
	subi r24,lo8(-(1))
	sts indexOfTemperatureSensorBeingRead,r24
	.loc 1 110 0
	call startTemperatureConversionAndReadoutCycle
.LVL26:
	ret
.L14:
	.loc 1 114 0
	call sendTelemetryViaUSART0
.LVL27:
	.loc 1 115 0
	ldi r22,lo8(4)
	ldi r24,lo8(.LC1)
	ldi r25,hi8(.LC1)
	call USART0_SendString
.LVL28:
	.loc 1 117 0
	lds r24,uptimeInSeconds
	lds r25,uptimeInSeconds+1
	lds r26,uptimeInSeconds+2
	lds r27,uptimeInSeconds+3
	push r27
.LCFI21:
	.cfi_def_cfa_offset 3
	push r26
.LCFI22:
	.cfi_def_cfa_offset 4
	push r25
.LCFI23:
	.cfi_def_cfa_offset 5
	push r24
.LCFI24:
	.cfi_def_cfa_offset 6
	ldi r24,lo8(.LC2)
	ldi r25,hi8(.LC2)
	push r25
.LCFI25:
	.cfi_def_cfa_offset 7
	push r24
.LCFI26:
	.cfi_def_cfa_offset 8
	lds r24,uptimeString+1
	push r24
.LCFI27:
	.cfi_def_cfa_offset 9
	lds r24,uptimeString
	push r24
.LCFI28:
	.cfi_def_cfa_offset 10
	call sprintf
.LVL29:
	.loc 1 118 0
	lds r24,uptimeString
	lds r25,uptimeString+1
	movw r30,r24
	0:
	ld __tmp_reg__,Z+
	tst __tmp_reg__
	brne 0b
	sbiw r30,1
	movw r22,r30
	sub r22,r24
	sbc r23,r25
	call USART0_SendString
.LVL30:
	.loc 1 119 0
	sts indexOfTemperatureSensorBeingRead,__zero_reg__
	.loc 1 120 0
	call onAllTemperaturesRead
.LVL31:
	in r24,__SP_L__
	in r25,__SP_H__
	adiw r24,8
	in __tmp_reg__,__SREG__
	cli
	out __SP_H__,r25
	out __SREG__,__tmp_reg__
	out __SP_L__,r24
.LCFI29:
	.cfi_def_cfa_offset 2
	ret
	.cfi_endproc
.LFE17:
	.size	onTemperatureConversionStarted, .-onTemperatureConversionStarted
	.section	.text.mainInit,"ax",@progbits
.global	mainInit
	.type	mainInit, @function
mainInit:
.LFB20:
	.loc 1 137 0
	.cfi_startproc
/* prologue: function */
/* frame size = 0 */
/* stack size = 0 */
.L__stack_usage = 0
	.loc 1 138 0
	ldi r24,lo8(onewirepin)
	ldi r25,hi8(onewirepin)
	call makeInput
.LVL32:
	.loc 1 139 0
	ldi r24,lo8(onewirepin)
	ldi r25,hi8(onewirepin)
	call disablePullup
.LVL33:
	.loc 1 141 0
	ldi r24,lo8(1)
	call USART0_init
.LVL34:
	.loc 1 143 0
	ldi r24,lo8(31)
	ldi r25,0
	call malloc
.LVL35:
	sts telemetryString+1,r25
	sts telemetryString,r24
	.loc 1 144 0
	ldi r24,lo8(27)
	ldi r25,0
	call malloc
.LVL36:
	sts uptimeString+1,r25
	sts uptimeString,r24
	.loc 1 146 0
	ldi r24,lo8(2)
	call setWaveformGenerationModeTimer0
.LVL37:
	.loc 1 147 0
	ldi r24,lo8(gs(timingGeneratorForOneSecond))
	ldi r25,hi8(gs(timingGeneratorForOneSecond))
	call defineCallbackOnTimer0CaptureCompareAMatch
.LVL38:
	.loc 1 148 0
	call letTimer0GenerateInterruptEvery500us
.LVL39:
	.loc 1 149 0
	call enableTimer0CaptureCompareAInterrupt
.LVL40:
	.loc 1 151 0
	ldi r24,lo8(2)
	call setWaveformGenerationModeTimer2
.LVL41:
	.loc 1 152 0
	sts uptimeInSeconds,__zero_reg__
	sts uptimeInSeconds+1,__zero_reg__
	sts uptimeInSeconds+2,__zero_reg__
	sts uptimeInSeconds+3,__zero_reg__
	.loc 1 153 0
/* #APP */
 ;  153 ".././main.c" 1
	sei
 ;  0 "" 2
	.loc 1 155 0
/* #NOAPP */
	call startTemperatureConversionAndReadoutCycle
.LVL42:
	ret
	.cfi_endproc
.LFE20:
	.size	mainInit, .-mainInit
	.global __do_global_ctors
	.section .ctors,"a",@progbits
	.p2align	1
	.word	gs(mainInit)
	.section	.text.mainEnd,"ax",@progbits
.global	mainEnd
	.type	mainEnd, @function
mainEnd:
.LFB21:
	.loc 1 159 0
	.cfi_startproc
/* prologue: function */
/* frame size = 0 */
/* stack size = 0 */
.L__stack_usage = 0
	.loc 1 160 0
	lds r24,telemetryString
	lds r25,telemetryString+1
	call free
.LVL43:
	.loc 1 161 0
	lds r24,uptimeString
	lds r25,uptimeString+1
	call free
.LVL44:
	ret
	.cfi_endproc
.LFE21:
	.size	mainEnd, .-mainEnd
	.global __do_global_dtors
	.section .dtors,"a",@progbits
	.p2align	1
	.word	gs(mainEnd)
	.section	.text.main,"ax",@progbits
.global	main
	.type	main, @function
main:
.LFB22:
	.loc 1 166 0
	.cfi_startproc
/* prologue: function */
/* frame size = 0 */
/* stack size = 0 */
.L__stack_usage = 0
.L19:
	rjmp .L19
	.cfi_endproc
.LFE22:
	.size	main, .-main
	.section	.data.remainingNumberOfInterruptsForOneSecond.2619,"aw",@progbits
	.type	remainingNumberOfInterruptsForOneSecond.2619, @object
	.size	remainingNumberOfInterruptsForOneSecond.2619, 2
remainingNumberOfInterruptsForOneSecond.2619:
	.word	2000
.global	indexOfTemperatureSensorBeingRead
	.section	.bss.indexOfTemperatureSensorBeingRead,"aw",@nobits
	.type	indexOfTemperatureSensorBeingRead, @object
	.size	indexOfTemperatureSensorBeingRead, 1
indexOfTemperatureSensorBeingRead:
	.zero	1
	.section	.bss.uptimeInSeconds,"aw",@nobits
	.type	uptimeInSeconds, @object
	.size	uptimeInSeconds, 4
uptimeInSeconds:
	.zero	4
	.section	.bss.uptimeString,"aw",@nobits
	.type	uptimeString, @object
	.size	uptimeString, 2
uptimeString:
	.zero	2
	.section	.bss.telemetryString,"aw",@nobits
	.type	telemetryString, @object
	.size	telemetryString, 2
telemetryString:
	.zero	2
	.comm	errorBits,11,1
.global	currentTemperatures
	.section	.bss.currentTemperatures,"aw",@nobits
	.type	currentTemperatures, @object
	.size	currentTemperatures, 22
currentTemperatures:
	.zero	22
.global	idByte
	.section	.bss.idByte,"aw",@nobits
	.type	idByte, @object
	.size	idByte, 1
idByte:
	.zero	1
.global	deviceIDs
	.section	.data.deviceIDs,"aw",@progbits
	.type	deviceIDs, @object
	.size	deviceIDs, 22
deviceIDs:
	.word	deviceIDThermocouple
	.word	deviceID0
	.word	deviceID1
	.word	deviceID2
	.word	deviceID3
	.word	deviceID4
	.word	deviceID5
	.word	deviceID6
	.word	deviceID7
	.word	deviceID8
	.word	deviceID9
.global	deviceIDThermocouple
	.section	.rodata.deviceIDThermocouple,"a",@progbits
	.type	deviceIDThermocouple, @object
	.size	deviceIDThermocouple, 8
deviceIDThermocouple:
	.byte	59
	.byte	25
	.byte	43
	.byte	24
	.byte	0
	.byte	0
	.byte	0
	.byte	-61
.global	deviceID9
	.section	.rodata.deviceID9,"a",@progbits
	.type	deviceID9, @object
	.size	deviceID9, 8
deviceID9:
	.byte	40
	.byte	-109
	.byte	-83
	.byte	-61
	.byte	3
	.byte	0
	.byte	0
	.byte	124
.global	deviceID8
	.section	.rodata.deviceID8,"a",@progbits
	.type	deviceID8, @object
	.size	deviceID8, 8
deviceID8:
	.byte	40
	.byte	113
	.byte	-13
	.byte	-101
	.byte	3
	.byte	0
	.byte	0
	.byte	-56
.global	deviceID7
	.section	.rodata.deviceID7,"a",@progbits
	.type	deviceID7, @object
	.size	deviceID7, 8
deviceID7:
	.byte	40
	.byte	62
	.byte	-48
	.byte	-61
	.byte	3
	.byte	0
	.byte	0
	.byte	-21
.global	deviceID6
	.section	.rodata.deviceID6,"a",@progbits
	.type	deviceID6, @object
	.size	deviceID6, 8
deviceID6:
	.byte	40
	.byte	-98
	.byte	-83
	.byte	-61
	.byte	3
	.byte	0
	.byte	0
	.byte	54
.global	deviceID5
	.section	.rodata.deviceID5,"a",@progbits
	.type	deviceID5, @object
	.size	deviceID5, 8
deviceID5:
	.byte	40
	.byte	-52
	.byte	-98
	.byte	-61
	.byte	3
	.byte	0
	.byte	0
	.byte	-68
.global	deviceID4
	.section	.rodata.deviceID4,"a",@progbits
	.type	deviceID4, @object
	.size	deviceID4, 8
deviceID4:
	.byte	40
	.byte	12
	.byte	-65
	.byte	-61
	.byte	3
	.byte	0
	.byte	0
	.byte	22
.global	deviceID3
	.section	.rodata.deviceID3,"a",@progbits
	.type	deviceID3, @object
	.size	deviceID3, 8
deviceID3:
	.byte	40
	.byte	4
	.byte	-34
	.byte	-61
	.byte	3
	.byte	0
	.byte	0
	.byte	107
.global	deviceID2
	.section	.rodata.deviceID2,"a",@progbits
	.type	deviceID2, @object
	.size	deviceID2, 8
deviceID2:
	.byte	40
	.byte	-88
	.byte	-80
	.byte	-61
	.byte	3
	.byte	0
	.byte	0
	.byte	-7
.global	deviceID1
	.section	.rodata.deviceID1,"a",@progbits
	.type	deviceID1, @object
	.size	deviceID1, 8
deviceID1:
	.byte	40
	.byte	-96
	.byte	-55
	.byte	-61
	.byte	3
	.byte	0
	.byte	0
	.byte	-58
.global	deviceID0
	.section	.rodata.deviceID0,"a",@progbits
	.type	deviceID0, @object
	.size	deviceID0, 8
deviceID0:
	.byte	40
	.byte	126
	.byte	-96
	.byte	-68
	.byte	5
	.byte	0
	.byte	0
	.byte	16
.global	onewirepin
	.section	.data.onewirepin,"aw",@progbits
	.type	onewirepin, @object
	.size	onewirepin, 8
onewirepin:
	.word	42
	.word	41
	.word	43
	.byte	2
	.byte	0
	.text
.Letext0:
	.file 2 "c:\\program files (x86)\\atmel\\studio\\7.0\\toolchain\\avr8\\avr8-gnu-toolchain\\avr\\include\\stdint.h"
	.file 3 ".././Timer0.h"
	.file 4 ".././Timer2.h"
	.file 5 ".././GPIO Pin.h"
	.file 6 ".././UART.h"
	.file 7 ".././DS18B20.h"
	.file 8 ".././MAX31850.h"
	.file 9 ".././marcsLanguageExtension.h"
	.file 10 "c:\\program files (x86)\\atmel\\studio\\7.0\\toolchain\\avr8\\avr8-gnu-toolchain\\avr\\include\\stdio.h"
	.file 11 "c:\\program files (x86)\\atmel\\studio\\7.0\\toolchain\\avr8\\avr8-gnu-toolchain\\avr\\include\\stdlib.h"