	.file	"OneWireLowLevel.c"
__SP_H__ = 0x3e
__SP_L__ = 0x3d
__SREG__ = 0x3f
__tmp_reg__ = 0
__zero_reg__ = 1
	.text
.Ltext0:
	.cfi_sections	.debug_frame
	.section	.text.onReadBitEnsureLongEnoughIdleTime,"ax",@progbits
.global	onReadBitEnsureLongEnoughIdleTime
	.type	onReadBitEnsureLongEnoughIdleTime, @function
onReadBitEnsureLongEnoughIdleTime:
.LFB10:
	.file 1 ".././OneWireLowLevel.c"
	.loc 1 18 0
	.cfi_startproc
/* prologue: function */
/* frame size = 0 */
/* stack size = 0 */
.L__stack_usage = 0
	.loc 1 19 0
	call stopTimer2
.LVL0:
	.loc 1 20 0
	lds r30,internalData+2
	lds r31,internalData+2+1
	icall
.LVL1:
	ret
	.cfi_endproc
.LFE10:
	.size	onReadBitEnsureLongEnoughIdleTime, .-onReadBitEnsureLongEnoughIdleTime
	.section	.text.onWrite1BusIsSampled,"ax",@progbits
.global	onWrite1BusIsSampled
	.type	onWrite1BusIsSampled, @function
onWrite1BusIsSampled:
.LFB14:
	.loc 1 56 0
	.cfi_startproc
/* prologue: function */
/* frame size = 0 */
/* stack size = 0 */
.L__stack_usage = 0
	.loc 1 57 0
	call stopTimer2
.LVL2:
	.loc 1 58 0
	lds r30,internalData+2
	lds r31,internalData+2+1
	icall
.LVL3:
	ret
	.cfi_endproc
.LFE14:
	.size	onWrite1BusIsSampled, .-onWrite1BusIsSampled
	.section	.text.onResetPulse500usHaveElapsedEvent,"ax",@progbits
.global	onResetPulse500usHaveElapsedEvent
	.type	onResetPulse500usHaveElapsedEvent, @function
onResetPulse500usHaveElapsedEvent:
.LFB19:
	.loc 1 118 0
	.cfi_startproc
	push r28
.LCFI0:
	.cfi_def_cfa_offset 3
	.cfi_offset 28, -2
	push r29
.LCFI1:
	.cfi_def_cfa_offset 4
	.cfi_offset 29, -3
/* prologue: function */
/* frame size = 0 */
/* stack size = 2 */
.L__stack_usage = 2
	.loc 1 119 0
	call stopTimer2
.LVL4:
	.loc 1 120 0
	ldi r28,lo8(internalData)
	ldi r29,hi8(internalData)
	ld r24,Y
	ldd r25,Y+1
	call makeInput
.LVL5:
	.loc 1 121 0
	ldd r30,Y+2
	ldd r31,Y+3
	icall
.LVL6:
/* epilogue start */
	.loc 1 122 0
	pop r29
	pop r28
	ret
	.cfi_endproc
.LFE19:
	.size	onResetPulse500usHaveElapsedEvent, .-onResetPulse500usHaveElapsedEvent
	.section	.text.onWrite0BitBusMustGoHigh,"ax",@progbits
.global	onWrite0BitBusMustGoHigh
	.type	onWrite0BitBusMustGoHigh, @function
onWrite0BitBusMustGoHigh:
.LFB12:
	.loc 1 38 0
	.cfi_startproc
	push r28
.LCFI2:
	.cfi_def_cfa_offset 3
	.cfi_offset 28, -2
	push r29
.LCFI3:
	.cfi_def_cfa_offset 4
	.cfi_offset 29, -3
/* prologue: function */
/* frame size = 0 */
/* stack size = 2 */
.L__stack_usage = 2
	.loc 1 39 0
	ldi r28,lo8(internalData)
	ldi r29,hi8(internalData)
	ld r24,Y
	ldd r25,Y+1
	call makeInput
.LVL7:
	.loc 1 40 0
	call stopTimer2
.LVL8:
.LBB10:
.LBB11:
	.file 2 "c:\\program files (x86)\\atmel\\studio\\7.0\\toolchain\\avr8\\avr8-gnu-toolchain\\avr\\include\\util\\delay.h"
	.loc 2 276 0
	ldi r24,lo8(10)
1:	dec r24
	brne 1b
	rjmp .
.LVL9:
.LBE11:
.LBE10:
	.loc 1 42 0
	ldd r30,Y+2
	ldd r31,Y+3
	icall
.LVL10:
/* epilogue start */
	.loc 1 43 0
	pop r29
	pop r28
	ret
	.cfi_endproc
.LFE12:
	.size	onWrite0BitBusMustGoHigh, .-onWrite0BitBusMustGoHigh
	.section	.text.onPresencePulse500usHaveElapsedEvent,"ax",@progbits
.global	onPresencePulse500usHaveElapsedEvent
	.type	onPresencePulse500usHaveElapsedEvent, @function
onPresencePulse500usHaveElapsedEvent:
.LFB16:
	.loc 1 76 0
	.cfi_startproc
/* prologue: function */
/* frame size = 0 */
/* stack size = 0 */
.L__stack_usage = 0
	.loc 1 77 0
	lds r24,isDevicePresent
	tst r24
	breq .L6
	.loc 1 78 0
	lds r30,internalData+2
	lds r31,internalData+2+1
	icall
.LVL11:
	ret
.L6:
	.loc 1 80 0
	call deathTrap
.LVL12:
	ret
	.cfi_endproc
.LFE16:
	.size	onPresencePulse500usHaveElapsedEvent, .-onPresencePulse500usHaveElapsedEvent
	.section	.text.onPresencePulseEnded,"ax",@progbits
.global	onPresencePulseEnded
	.type	onPresencePulseEnded, @function
onPresencePulseEnded:
.LFB17:
	.loc 1 84 0
	.cfi_startproc
/* prologue: function */
/* frame size = 0 */
/* stack size = 0 */
.L__stack_usage = 0
	.loc 1 85 0
	lds r24,internalData
	lds r25,internalData+1
	call disableExternalInterrupt
.LVL13:
	.loc 1 86 0
	ldi r24,lo8(1)
	sts isDevicePresent,r24
	ret
	.cfi_endproc
.LFE17:
	.size	onPresencePulseEnded, .-onPresencePulseEnded
	.section	.text.readBitFromOneWire,"ax",@progbits
.global	readBitFromOneWire
	.type	readBitFromOneWire, @function
readBitFromOneWire:
.LFB11:
	.loc 1 24 0
	.cfi_startproc
.LVL14:
	push r14
.LCFI4:
	.cfi_def_cfa_offset 3
	.cfi_offset 14, -2
	push r15
.LCFI5:
	.cfi_def_cfa_offset 4
	.cfi_offset 15, -3
	push r16
.LCFI6:
	.cfi_def_cfa_offset 5
	.cfi_offset 16, -4
	push r17
.LCFI7:
	.cfi_def_cfa_offset 6
	.cfi_offset 17, -5
	push r28
.LCFI8:
	.cfi_def_cfa_offset 7
	.cfi_offset 28, -6
	push r29
.LCFI9:
	.cfi_def_cfa_offset 8
	.cfi_offset 29, -7
/* prologue: function */
/* frame size = 0 */
/* stack size = 6 */
.L__stack_usage = 6
	movw r28,r24
	movw r14,r22
	movw r16,r20
	.loc 1 25 0
	call makeOutputLow
.LVL15:
.LBB12:
.LBB13:
	.loc 2 276 0
	ldi r24,lo8(10)
1:	dec r24
	brne 1b
	rjmp .
.LVL16:
.LBE13:
.LBE12:
	.loc 1 27 0
	movw r24,r28
	call makeInput
.LVL17:
.LBB14:
.LBB15:
	.loc 2 276 0
	ldi r30,lo8(53)
1:	dec r30
	brne 1b
	nop
.LVL18:
.LBE15:
.LBE14:
	.loc 1 29 0
	movw r24,r28
	call getPinState
.LVL19:
	movw r30,r14
	st Z,r24
	.loc 1 31 0
	sts internalData+2+1,r17
	sts internalData+2,r16
	.loc 1 32 0
	ldi r24,lo8(gs(onReadBitEnsureLongEnoughIdleTime))
	ldi r25,hi8(gs(onReadBitEnsureLongEnoughIdleTime))
	call defineCallbackOnTimer2CaptureCompareAMatch
.LVL20:
	.loc 1 33 0
	call letTimer2GenerateInterruptEveryRoughly60us
.LVL21:
	.loc 1 34 0
	call enableTimer2CaptureCompareAInterrupt
.LVL22:
/* epilogue start */
	.loc 1 35 0
	pop r29
	pop r28
.LVL23:
	pop r17
	pop r16
.LVL24:
	pop r15
	pop r14
.LVL25:
	ret
	.cfi_endproc
.LFE11:
	.size	readBitFromOneWire, .-readBitFromOneWire
	.section	.text.write0BitToOneWire,"ax",@progbits
.global	write0BitToOneWire
	.type	write0BitToOneWire, @function
write0BitToOneWire:
.LFB13:
	.loc 1 46 0
	.cfi_startproc
.LVL26:
	push r28
.LCFI10:
	.cfi_def_cfa_offset 3
	.cfi_offset 28, -2
	push r29
.LCFI11:
	.cfi_def_cfa_offset 4
	.cfi_offset 29, -3
/* prologue: function */
/* frame size = 0 */
/* stack size = 2 */
.L__stack_usage = 2
	movw r28,r24
	.loc 1 47 0
	ldi r30,lo8(internalData)
	ldi r31,hi8(internalData)
	std Z+1,r25
	st Z,r24
	.loc 1 48 0
	std Z+3,r23
	std Z+2,r22
	.loc 1 49 0
	ldi r24,lo8(gs(onWrite0BitBusMustGoHigh))
	ldi r25,hi8(gs(onWrite0BitBusMustGoHigh))
.LVL27:
	call defineCallbackOnTimer2CaptureCompareAMatch
.LVL28:
	.loc 1 50 0
	call letTimer2GenerateInterruptEveryRoughly60us
.LVL29:
	.loc 1 51 0
	movw r24,r28
	call makeOutputLow
.LVL30:
	.loc 1 52 0
	call enableTimer2CaptureCompareAInterrupt
.LVL31:
/* epilogue start */
	.loc 1 53 0
	pop r29
	pop r28
.LVL32:
	ret
	.cfi_endproc
.LFE13:
	.size	write0BitToOneWire, .-write0BitToOneWire
	.section	.text.write1BitToOneWire,"ax",@progbits
.global	write1BitToOneWire
	.type	write1BitToOneWire, @function
write1BitToOneWire:
.LFB15:
	.loc 1 63 0
	.cfi_startproc
.LVL33:
	push r28
.LCFI12:
	.cfi_def_cfa_offset 3
	.cfi_offset 28, -2
	push r29
.LCFI13:
	.cfi_def_cfa_offset 4
	.cfi_offset 29, -3
/* prologue: function */
/* frame size = 0 */
/* stack size = 2 */
.L__stack_usage = 2
	movw r28,r24
	.loc 1 64 0
	ldi r30,lo8(internalData)
	ldi r31,hi8(internalData)
	std Z+1,r25
	st Z,r24
	.loc 1 65 0
	std Z+3,r23
	std Z+2,r22
	.loc 1 66 0
	call makeOutputLow
.LVL34:
.LBB16:
.LBB17:
	.loc 2 276 0
	ldi r24,lo8(5)
1:	dec r24
	brne 1b
	nop
.LVL35:
.LBE17:
.LBE16:
	.loc 1 69 0
	movw r24,r28
	call makeInput
.LVL36:
	.loc 1 70 0
	ldi r24,lo8(gs(onWrite1BusIsSampled))
	ldi r25,hi8(gs(onWrite1BusIsSampled))
	call defineCallbackOnTimer2CaptureCompareAMatch
.LVL37:
	.loc 1 71 0
	call letTimer2GenerateInterruptEveryRoughly60us
.LVL38:
/* epilogue start */
	.loc 1 73 0
	pop r29
	pop r28
.LVL39:
	.loc 1 72 0
	jmp enableTimer2CaptureCompareAInterrupt
.LVL40:
	.cfi_endproc
.LFE15:
	.size	write1BitToOneWire, .-write1BitToOneWire
	.section	.text.awaitOneWirePresencePulse,"ax",@progbits
.global	awaitOneWirePresencePulse
	.type	awaitOneWirePresencePulse, @function
awaitOneWirePresencePulse:
.LFB18:
	.loc 1 90 0
	.cfi_startproc
.LVL41:
	push r28
.LCFI14:
	.cfi_def_cfa_offset 3
	.cfi_offset 28, -2
	push r29
.LCFI15:
	.cfi_def_cfa_offset 4
	.cfi_offset 29, -3
/* prologue: function */
/* frame size = 0 */
/* stack size = 2 */
.L__stack_usage = 2
	movw r28,r24
	.loc 1 99 0
	ldi r30,lo8(internalData)
	ldi r31,hi8(internalData)
	std Z+1,r25
	st Z,r24
	.loc 1 100 0
	std Z+3,r23
	std Z+2,r22
	.loc 1 102 0
	ldi r24,lo8(gs(onPresencePulse500usHaveElapsedEvent))
	ldi r25,hi8(gs(onPresencePulse500usHaveElapsedEvent))
.LVL42:
	call defineCallbackOnTimer2CaptureCompareAMatch
.LVL43:
	.loc 1 103 0
	call letTimer2GenerateInterruptEvery500us
.LVL44:
	.loc 1 104 0
	call enableTimer2CaptureCompareAInterrupt
.LVL45:
.L13:
	.loc 1 110 0
	movw r24,r28
	call getPinState
.LVL46:
	cpse r24,__zero_reg__
	rjmp .L13
.LVL47:
	.loc 1 114 0
	ldi r20,lo8(gs(onPresencePulseEnded))
	ldi r21,hi8(gs(onPresencePulseEnded))
	ldi r22,lo8(3)
	movw r24,r28
	call enableExternalInterrupt
.LVL48:
/* epilogue start */
	.loc 1 115 0
	pop r29
	pop r28
.LVL49:
	ret
	.cfi_endproc
.LFE18:
	.size	awaitOneWirePresencePulse, .-awaitOneWirePresencePulse
	.section	.text.awaitOneWirePresencePulseWrapper,"ax",@progbits
.global	awaitOneWirePresencePulseWrapper
	.type	awaitOneWirePresencePulseWrapper, @function
awaitOneWirePresencePulseWrapper:
.LFB21:
	.loc 1 142 0
	.cfi_startproc
/* prologue: function */
/* frame size = 0 */
/* stack size = 0 */
.L__stack_usage = 0
	.loc 1 143 0
	ldi r30,lo8(internalDataFullReset)
	ldi r31,hi8(internalDataFullReset)
	ldd r22,Z+2
	ldd r23,Z+3
	ld r24,Z
	ldd r25,Z+1
	call awaitOneWirePresencePulse
.LVL50:
	ret
	.cfi_endproc
.LFE21:
	.size	awaitOneWirePresencePulseWrapper, .-awaitOneWirePresencePulseWrapper
	.section	.text.performOneWireReset,"ax",@progbits
.global	performOneWireReset
	.type	performOneWireReset, @function
performOneWireReset:
.LFB20:
	.loc 1 125 0
	.cfi_startproc
.LVL51:
	push r28
.LCFI16:
	.cfi_def_cfa_offset 3
	.cfi_offset 28, -2
	push r29
.LCFI17:
	.cfi_def_cfa_offset 4
	.cfi_offset 29, -3
/* prologue: function */
/* frame size = 0 */
/* stack size = 2 */
.L__stack_usage = 2
	movw r28,r24
	.loc 1 126 0
	sts isDevicePresent,__zero_reg__
	.loc 1 127 0
	ldi r30,lo8(internalData)
	ldi r31,hi8(internalData)
	std Z+1,r25
	st Z,r24
	.loc 1 128 0
	std Z+3,r23
	std Z+2,r22
	.loc 1 130 0
	ldi r24,lo8(gs(onResetPulse500usHaveElapsedEvent))
	ldi r25,hi8(gs(onResetPulse500usHaveElapsedEvent))
.LVL52:
	call defineCallbackOnTimer2CaptureCompareAMatch
.LVL53:
	.loc 1 131 0
	movw r24,r28
	call makeOutputLow
.LVL54:
	.loc 1 137 0
	call letTimer2GenerateInterruptEvery500us
.LVL55:
	.loc 1 138 0
	call enableTimer2CaptureCompareAInterrupt
.LVL56:
/* epilogue start */
	.loc 1 139 0
	pop r29
	pop r28
.LVL57:
	ret
	.cfi_endproc
.LFE20:
	.size	performOneWireReset, .-performOneWireReset
	.section	.text.performFullOneWireReset,"ax",@progbits
.global	performFullOneWireReset
	.type	performFullOneWireReset, @function
performFullOneWireReset:
.LFB22:
	.loc 1 147 0
	.cfi_startproc
.LVL58:
/* prologue: function */
/* frame size = 0 */
/* stack size = 0 */
.L__stack_usage = 0
	.loc 1 148 0
	ldi r30,lo8(internalDataFullReset)
	ldi r31,hi8(internalDataFullReset)
	std Z+1,r25
	st Z,r24
	.loc 1 149 0
	std Z+3,r23
	std Z+2,r22
	.loc 1 150 0
	ldi r22,lo8(gs(awaitOneWirePresencePulseWrapper))
	ldi r23,hi8(gs(awaitOneWirePresencePulseWrapper))
.LVL59:
	call performOneWireReset
.LVL60:
	ret
	.cfi_endproc
.LFE22:
	.size	performFullOneWireReset, .-performFullOneWireReset
.global	isDevicePresent
	.section	.bss.isDevicePresent,"aw",@nobits
	.type	isDevicePresent, @object
	.size	isDevicePresent, 1
isDevicePresent:
	.zero	1
	.comm	internalDataFullReset,5,1
	.comm	internalData,5,1
	.text
.Letext0:
	.file 3 "c:\\program files (x86)\\atmel\\studio\\7.0\\toolchain\\avr8\\avr8-gnu-toolchain\\avr\\include\\stdint.h"
	.file 4 ".././marcsLanguageExtension.h"
	.file 5 ".././GPIO Pin.h"
	.file 6 ".././Timer2.h"