	.file	"OneWire.c"
__SP_H__ = 0x3e
__SP_L__ = 0x3d
__SREG__ = 0x3f
__RAMPZ__ = 0x3b
__tmp_reg__ = 0
__zero_reg__ = 1
	.text
.Ltext0:
	.cfi_sections	.debug_frame
	.section	.text.onReadBitEnsureLongEnoughIdleTime,"ax",@progbits
.global	onReadBitEnsureLongEnoughIdleTime
	.type	onReadBitEnsureLongEnoughIdleTime, @function
onReadBitEnsureLongEnoughIdleTime:
.LFB14:
	.file 1 ".././OneWire.c"
	.loc 1 87 0
	.cfi_startproc
/* prologue: function */
/* frame size = 0 */
/* stack size = 0 */
.L__stack_usage = 0
	.loc 1 88 0
	call stopTimer2
.LVL0:
	.loc 1 89 0
	lds r30,internalData+2
	lds r31,internalData+2+1
	eicall
.LVL1:
	ret
	.cfi_endproc
.LFE14:
	.size	onReadBitEnsureLongEnoughIdleTime, .-onReadBitEnsureLongEnoughIdleTime
	.section	.text.onWrite1BusIsSampled,"ax",@progbits
.global	onWrite1BusIsSampled
	.type	onWrite1BusIsSampled, @function
onWrite1BusIsSampled:
.LFB18:
	.loc 1 125 0
	.cfi_startproc
/* prologue: function */
/* frame size = 0 */
/* stack size = 0 */
.L__stack_usage = 0
	.loc 1 126 0
	call stopTimer2
.LVL2:
	.loc 1 127 0
	lds r30,internalData+2
	lds r31,internalData+2+1
	eicall
.LVL3:
	ret
	.cfi_endproc
.LFE18:
	.size	onWrite1BusIsSampled, .-onWrite1BusIsSampled
	.section	.text.onResetPulse500usHaveElapsedEvent,"ax",@progbits
.global	onResetPulse500usHaveElapsedEvent
	.type	onResetPulse500usHaveElapsedEvent, @function
onResetPulse500usHaveElapsedEvent:
.LFB23:
	.loc 1 187 0
	.cfi_startproc
	push r28
.LCFI0:
	.cfi_def_cfa_offset 4
	.cfi_offset 28, -3
	push r29
.LCFI1:
	.cfi_def_cfa_offset 5
	.cfi_offset 29, -4
/* prologue: function */
/* frame size = 0 */
/* stack size = 2 */
.L__stack_usage = 2
	.loc 1 188 0
	call stopTimer2
.LVL4:
	.loc 1 189 0
	ldi r28,lo8(internalData)
	ldi r29,hi8(internalData)
	ld r24,Y
	ldd r25,Y+1
	call makeInput
.LVL5:
	.loc 1 190 0
	ldd r30,Y+2
	ldd r31,Y+3
	eicall
.LVL6:
/* epilogue start */
	.loc 1 191 0
	pop r29
	pop r28
	ret
	.cfi_endproc
.LFE23:
	.size	onResetPulse500usHaveElapsedEvent, .-onResetPulse500usHaveElapsedEvent
	.section	.text.onWrite0BitBusMustGoHigh,"ax",@progbits
.global	onWrite0BitBusMustGoHigh
	.type	onWrite0BitBusMustGoHigh, @function
onWrite0BitBusMustGoHigh:
.LFB16:
	.loc 1 107 0
	.cfi_startproc
	push r28
.LCFI2:
	.cfi_def_cfa_offset 4
	.cfi_offset 28, -3
	push r29
.LCFI3:
	.cfi_def_cfa_offset 5
	.cfi_offset 29, -4
/* prologue: function */
/* frame size = 0 */
/* stack size = 2 */
.L__stack_usage = 2
	.loc 1 108 0
	ldi r28,lo8(internalData)
	ldi r29,hi8(internalData)
	ld r24,Y
	ldd r25,Y+1
	call makeInput
.LVL7:
	.loc 1 109 0
	call stopTimer2
.LVL8:
.LBB10:
.LBB11:
	.file 2 "c:\\program files (x86)\\atmel\\studio\\7.0\\toolchain\\avr8\\avr8-gnu-toolchain\\avr\\include\\util\\delay.h"
	.loc 2 276 0
	ldi r24,lo8(10)
1:	dec r24
	brne 1b
	rjmp .
.LVL9:
.LBE11:
.LBE10:
	.loc 1 111 0
	ldd r30,Y+2
	ldd r31,Y+3
	eicall
.LVL10:
/* epilogue start */
	.loc 1 112 0
	pop r29
	pop r28
	ret
	.cfi_endproc
.LFE16:
	.size	onWrite0BitBusMustGoHigh, .-onWrite0BitBusMustGoHigh
	.section	.text.onPresencePulse500usHaveElapsedEvent,"ax",@progbits
.global	onPresencePulse500usHaveElapsedEvent
	.type	onPresencePulse500usHaveElapsedEvent, @function
onPresencePulse500usHaveElapsedEvent:
.LFB20:
	.loc 1 145 0
	.cfi_startproc
/* prologue: function */
/* frame size = 0 */
/* stack size = 0 */
.L__stack_usage = 0
	.loc 1 146 0
	lds r24,isDevicePresent
	tst r24
	breq .L6
	.loc 1 147 0
	lds r30,internalData+2
	lds r31,internalData+2+1
	eicall
.LVL11:
	ret
.L6:
	.loc 1 149 0
	call deathTrap
.LVL12:
	ret
	.cfi_endproc
.LFE20:
	.size	onPresencePulse500usHaveElapsedEvent, .-onPresencePulse500usHaveElapsedEvent
	.section	.text.onPresencePulseEnded,"ax",@progbits
.global	onPresencePulseEnded
	.type	onPresencePulseEnded, @function
onPresencePulseEnded:
.LFB21:
	.loc 1 153 0
	.cfi_startproc
/* prologue: function */
/* frame size = 0 */
/* stack size = 0 */
.L__stack_usage = 0
	.loc 1 154 0
	lds r24,internalData
	lds r25,internalData+1
	call disableExternalInterrupt
.LVL13:
	.loc 1 155 0
	ldi r24,lo8(1)
	sts isDevicePresent,r24
	ret
	.cfi_endproc
.LFE21:
	.size	onPresencePulseEnded, .-onPresencePulseEnded
	.section	.text.readBitFromOneWire,"ax",@progbits
.global	readBitFromOneWire
	.type	readBitFromOneWire, @function
readBitFromOneWire:
.LFB15:
	.loc 1 93 0
	.cfi_startproc
.LVL14:
	push r14
.LCFI4:
	.cfi_def_cfa_offset 4
	.cfi_offset 14, -3
	push r15
.LCFI5:
	.cfi_def_cfa_offset 5
	.cfi_offset 15, -4
	push r16
.LCFI6:
	.cfi_def_cfa_offset 6
	.cfi_offset 16, -5
	push r17
.LCFI7:
	.cfi_def_cfa_offset 7
	.cfi_offset 17, -6
	push r28
.LCFI8:
	.cfi_def_cfa_offset 8
	.cfi_offset 28, -7
	push r29
.LCFI9:
	.cfi_def_cfa_offset 9
	.cfi_offset 29, -8
/* prologue: function */
/* frame size = 0 */
/* stack size = 6 */
.L__stack_usage = 6
	movw r28,r24
	movw r14,r22
	movw r16,r20
	.loc 1 94 0
	call makeOutputLow
.LVL15:
.LBB12:
.LBB13:
	.loc 2 276 0
	ldi r24,lo8(10)
1:	dec r24
	brne 1b
	rjmp .
.LVL16:
.LBE13:
.LBE12:
	.loc 1 96 0
	movw r24,r28
	call makeInput
.LVL17:
.LBB14:
.LBB15:
	.loc 2 276 0
	ldi r30,lo8(53)
1:	dec r30
	brne 1b
	nop
.LVL18:
.LBE15:
.LBE14:
	.loc 1 98 0
	movw r24,r28
	call getPinState
.LVL19:
	movw r30,r14
	st Z,r24
	.loc 1 100 0
	sts internalData+2+1,r17
	sts internalData+2,r16
	.loc 1 101 0
	ldi r24,lo8(gs(onReadBitEnsureLongEnoughIdleTime))
	ldi r25,hi8(gs(onReadBitEnsureLongEnoughIdleTime))
	call defineCallbackOnTimer2CaptureCompareAMatch
.LVL20:
	.loc 1 102 0
	call letTimer2GenerateInterruptEveryRoughly60us
.LVL21:
	.loc 1 103 0
	call enableTimer2CaptureCompareAInterrupt
.LVL22:
/* epilogue start */
	.loc 1 104 0
	pop r29
	pop r28
.LVL23:
	pop r17
	pop r16
.LVL24:
	pop r15
	pop r14
.LVL25:
	ret
	.cfi_endproc
.LFE15:
	.size	readBitFromOneWire, .-readBitFromOneWire
	.section	.text.readByteFromOneWireBus,"ax",@progbits
.global	readByteFromOneWireBus
	.type	readByteFromOneWireBus, @function
readByteFromOneWireBus:
.LFB11:
	.loc 1 24 0
	.cfi_startproc
.LVL26:
/* prologue: function */
/* frame size = 0 */
/* stack size = 0 */
.L__stack_usage = 0
	.loc 1 33 0
	tst r22
	breq .L11
	.loc 1 35 0
	sts posistionWithinByte.2014,__zero_reg__
	.loc 1 36 0
	sts lastByte.2013+1,r25
	sts lastByte.2013,r24
	.loc 1 37 0
	movw r30,r24
	st Z,__zero_reg__
	.loc 1 38 0
	sts lastCallback.2015+1,r19
	sts lastCallback.2015,r18
	.loc 1 39 0
	sts lastOneWirePin.2016+1,r21
	sts lastOneWirePin.2016,r20
	rjmp .L12
.L11:
	.loc 1 43 0
	lds r30,lastByte.2013
	lds r31,lastByte.2013+1
	lds r18,posistionWithinByte.2014
.LVL27:
	lds r24,readBit.2017
.LVL28:
	ldi r25,0
	mov r0,r18
	rjmp 2f
	1:
	lsl r24
	rol r25
	2:
	dec r0
	brpl 1b
	ld r25,Z
	or r24,r25
	st Z,r24
	.loc 1 44 0
	ldi r24,lo8(1)
	add r24,r18
	sts posistionWithinByte.2014,r24
	.loc 1 47 0
	cpi r24,lo8(8)
	brsh .L13
.L12:
	.loc 1 48 0
	ldi r20,lo8(gs(readNextBitWrapper))
	ldi r21,hi8(gs(readNextBitWrapper))
.LVL29:
	ldi r22,lo8(readBit.2017)
	ldi r23,hi8(readBit.2017)
.LVL30:
	lds r24,lastOneWirePin.2016
	lds r25,lastOneWirePin.2016+1
	call readBitFromOneWire
.LVL31:
	ret
.LVL32:
.L13:
	.loc 1 50 0
	lds r30,lastCallback.2015
	lds r31,lastCallback.2015+1
	eicall
.LVL33:
	ret
	.cfi_endproc
.LFE11:
	.size	readByteFromOneWireBus, .-readByteFromOneWireBus
	.section	.text.readNextBitWrapper,"ax",@progbits
.global	readNextBitWrapper
	.type	readNextBitWrapper, @function
readNextBitWrapper:
.LFB10:
	.loc 1 19 0
	.cfi_startproc
/* prologue: function */
/* frame size = 0 */
/* stack size = 0 */
.L__stack_usage = 0
	.loc 1 20 0
	ldi r18,0
	ldi r19,0
	ldi r20,0
	ldi r21,0
	ldi r22,0
	ldi r24,0
	ldi r25,0
	call readByteFromOneWireBus
.LVL34:
	ret
	.cfi_endproc
.LFE10:
	.size	readNextBitWrapper, .-readNextBitWrapper
	.section	.text.write0BitToOneWire,"ax",@progbits
.global	write0BitToOneWire
	.type	write0BitToOneWire, @function
write0BitToOneWire:
.LFB17:
	.loc 1 115 0
	.cfi_startproc
.LVL35:
	push r28
.LCFI10:
	.cfi_def_cfa_offset 4
	.cfi_offset 28, -3
	push r29
.LCFI11:
	.cfi_def_cfa_offset 5
	.cfi_offset 29, -4
/* prologue: function */
/* frame size = 0 */
/* stack size = 2 */
.L__stack_usage = 2
	movw r28,r24
	.loc 1 116 0
	ldi r30,lo8(internalData)
	ldi r31,hi8(internalData)
	std Z+1,r25
	st Z,r24
	.loc 1 117 0
	std Z+3,r23
	std Z+2,r22
	.loc 1 118 0
	ldi r24,lo8(gs(onWrite0BitBusMustGoHigh))
	ldi r25,hi8(gs(onWrite0BitBusMustGoHigh))
.LVL36:
	call defineCallbackOnTimer2CaptureCompareAMatch
.LVL37:
	.loc 1 119 0
	call letTimer2GenerateInterruptEveryRoughly60us
.LVL38:
	.loc 1 120 0
	movw r24,r28
	call makeOutputLow
.LVL39:
	.loc 1 121 0
	call enableTimer2CaptureCompareAInterrupt
.LVL40:
/* epilogue start */
	.loc 1 122 0
	pop r29
	pop r28
.LVL41:
	ret
	.cfi_endproc
.LFE17:
	.size	write0BitToOneWire, .-write0BitToOneWire
	.section	.text.writeByteToOneWireBus,"ax",@progbits
.global	writeByteToOneWireBus
	.type	writeByteToOneWireBus, @function
writeByteToOneWireBus:
.LFB13:
	.loc 1 59 0
	.cfi_startproc
.LVL42:
	push r28
.LCFI12:
	.cfi_def_cfa_offset 4
	.cfi_offset 28, -3
	push r29
.LCFI13:
	.cfi_def_cfa_offset 5
	.cfi_offset 29, -4
/* prologue: function */
/* frame size = 0 */
/* stack size = 2 */
.L__stack_usage = 2
	.loc 1 67 0
	tst r22
	breq .L18
	.loc 1 69 0
	sts positionWithinByte.2028,__zero_reg__
	.loc 1 70 0
	sts lastByte.2027,r24
	.loc 1 71 0
	sts lastCallback.2029+1,r19
	sts lastCallback.2029,r18
	.loc 1 72 0
	sts lastOneWirePin.2030+1,r21
	sts lastOneWirePin.2030,r20
.L18:
	.loc 1 75 0
	lds r24,positionWithinByte.2028
.LVL43:
	cpi r24,lo8(8)
	brsh .L19
	.loc 1 77 0
	lds r24,lastByte.2027
	lds r18,positionWithinByte.2028
.LVL44:
	ldi r25,lo8(1)
	add r25,r18
	sts positionWithinByte.2028,r25
	ldi r25,0
	rjmp 2f
	1:
	asr r25
	ror r24
	2:
	dec r18
	brpl 1b
	sbrs r24,0
	rjmp .L20
	.loc 1 78 0
	lds r28,lastOneWirePin.2030
	lds r29,lastOneWirePin.2030+1
.LVL45:
.LBB22:
.LBB23:
	.loc 1 133 0
	sts internalData+1,r29
	sts internalData,r28
	.loc 1 134 0
	ldi r24,lo8(gs(writeNextBitWrapper))
	ldi r25,hi8(gs(writeNextBitWrapper))
	sts internalData+2+1,r25
	sts internalData+2,r24
	.loc 1 135 0
	movw r24,r28
	call makeOutputLow
.LVL46:
.LBB24:
.LBB25:
	.loc 2 276 0
	ldi r24,lo8(5)
1:	dec r24
	brne 1b
	nop
.LVL47:
.LBE25:
.LBE24:
	.loc 1 138 0
	movw r24,r28
	call makeInput
.LVL48:
	.loc 1 139 0
	ldi r24,lo8(gs(onWrite1BusIsSampled))
	ldi r25,hi8(gs(onWrite1BusIsSampled))
	call defineCallbackOnTimer2CaptureCompareAMatch
.LVL49:
	.loc 1 140 0
	call letTimer2GenerateInterruptEveryRoughly60us
.LVL50:
/* epilogue start */
.LBE23:
.LBE22:
	.loc 1 84 0
	pop r29
	pop r28
.LVL51:
.LBB27:
.LBB26:
	.loc 1 141 0
	jmp enableTimer2CaptureCompareAInterrupt
.LVL52:
.L20:
.LBE26:
.LBE27:
	.loc 1 80 0
	ldi r22,lo8(gs(writeNextBitWrapper))
	ldi r23,hi8(gs(writeNextBitWrapper))
.LVL53:
	lds r24,lastOneWirePin.2030
	lds r25,lastOneWirePin.2030+1
/* epilogue start */
	.loc 1 84 0
	pop r29
	pop r28
	.loc 1 80 0
	jmp write0BitToOneWire
.LVL54:
.L19:
.LBB28:
.LBB29:
	.loc 1 83 0
	lds r30,lastCallback.2029
	lds r31,lastCallback.2029+1
/* epilogue start */
.LBE29:
.LBE28:
	.loc 1 84 0
	pop r29
	pop r28
.LBB31:
.LBB30:
	.loc 1 83 0
	eijmp
.LVL55:
.LBE30:
.LBE31:
	.cfi_endproc
.LFE13:
	.size	writeByteToOneWireBus, .-writeByteToOneWireBus
	.section	.text.writeNextBitWrapper,"ax",@progbits
.global	writeNextBitWrapper
	.type	writeNextBitWrapper, @function
writeNextBitWrapper:
.LFB12:
	.loc 1 54 0
	.cfi_startproc
/* prologue: function */
/* frame size = 0 */
/* stack size = 0 */
.L__stack_usage = 0
	.loc 1 55 0
	ldi r18,0
	ldi r19,0
	ldi r20,0
	ldi r21,0
	ldi r22,0
	ldi r24,0
	call writeByteToOneWireBus
.LVL56:
	ret
	.cfi_endproc
.LFE12:
	.size	writeNextBitWrapper, .-writeNextBitWrapper
	.section	.text.write1BitToOneWire,"ax",@progbits
.global	write1BitToOneWire
	.type	write1BitToOneWire, @function
write1BitToOneWire:
.LFB19:
	.loc 1 132 0
	.cfi_startproc
.LVL57:
	push r28
.LCFI14:
	.cfi_def_cfa_offset 4
	.cfi_offset 28, -3
	push r29
.LCFI15:
	.cfi_def_cfa_offset 5
	.cfi_offset 29, -4
/* prologue: function */
/* frame size = 0 */
/* stack size = 2 */
.L__stack_usage = 2
	movw r28,r24
	.loc 1 133 0
	ldi r30,lo8(internalData)
	ldi r31,hi8(internalData)
	std Z+1,r25
	st Z,r24
	.loc 1 134 0
	std Z+3,r23
	std Z+2,r22
	.loc 1 135 0
	call makeOutputLow
.LVL58:
.LBB32:
.LBB33:
	.loc 2 276 0
	ldi r24,lo8(5)
1:	dec r24
	brne 1b
	nop
.LVL59:
.LBE33:
.LBE32:
	.loc 1 138 0
	movw r24,r28
	call makeInput
.LVL60:
	.loc 1 139 0
	ldi r24,lo8(gs(onWrite1BusIsSampled))
	ldi r25,hi8(gs(onWrite1BusIsSampled))
	call defineCallbackOnTimer2CaptureCompareAMatch
.LVL61:
	.loc 1 140 0
	call letTimer2GenerateInterruptEveryRoughly60us
.LVL62:
/* epilogue start */
	.loc 1 142 0
	pop r29
	pop r28
.LVL63:
	.loc 1 141 0
	jmp enableTimer2CaptureCompareAInterrupt
.LVL64:
	.cfi_endproc
.LFE19:
	.size	write1BitToOneWire, .-write1BitToOneWire
	.section	.text.awaitOneWirePresencePulse,"ax",@progbits
.global	awaitOneWirePresencePulse
	.type	awaitOneWirePresencePulse, @function
awaitOneWirePresencePulse:
.LFB22:
	.loc 1 159 0
	.cfi_startproc
.LVL65:
	push r28
.LCFI16:
	.cfi_def_cfa_offset 4
	.cfi_offset 28, -3
	push r29
.LCFI17:
	.cfi_def_cfa_offset 5
	.cfi_offset 29, -4
/* prologue: function */
/* frame size = 0 */
/* stack size = 2 */
.L__stack_usage = 2
	movw r28,r24
	.loc 1 168 0
	ldi r30,lo8(internalData)
	ldi r31,hi8(internalData)
	std Z+1,r25
	st Z,r24
	.loc 1 169 0
	std Z+3,r23
	std Z+2,r22
	.loc 1 171 0
	ldi r24,lo8(gs(onPresencePulse500usHaveElapsedEvent))
	ldi r25,hi8(gs(onPresencePulse500usHaveElapsedEvent))
.LVL66:
	call defineCallbackOnTimer2CaptureCompareAMatch
.LVL67:
	.loc 1 172 0
	call letTimer2GenerateInterruptEvery500us
.LVL68:
	.loc 1 173 0
	call enableTimer2CaptureCompareAInterrupt
.LVL69:
.L28:
	.loc 1 179 0
	movw r24,r28
	call getPinState
.LVL70:
	cpse r24,__zero_reg__
	rjmp .L28
.LVL71:
	.loc 1 183 0
	ldi r20,lo8(gs(onPresencePulseEnded))
	ldi r21,hi8(gs(onPresencePulseEnded))
	ldi r22,lo8(3)
	movw r24,r28
	call enableExternalInterrupt
.LVL72:
/* epilogue start */
	.loc 1 184 0
	pop r29
	pop r28
.LVL73:
	ret
	.cfi_endproc
.LFE22:
	.size	awaitOneWirePresencePulse, .-awaitOneWirePresencePulse
	.section	.text.awaitOneWirePresencePulseWrapper,"ax",@progbits
.global	awaitOneWirePresencePulseWrapper
	.type	awaitOneWirePresencePulseWrapper, @function
awaitOneWirePresencePulseWrapper:
.LFB25:
	.loc 1 211 0
	.cfi_startproc
/* prologue: function */
/* frame size = 0 */
/* stack size = 0 */
.L__stack_usage = 0
	.loc 1 212 0
	ldi r30,lo8(internalDataFullReset)
	ldi r31,hi8(internalDataFullReset)
	ldd r22,Z+2
	ldd r23,Z+3
	ld r24,Z
	ldd r25,Z+1
	call awaitOneWirePresencePulse
.LVL74:
	ret
	.cfi_endproc
.LFE25:
	.size	awaitOneWirePresencePulseWrapper, .-awaitOneWirePresencePulseWrapper
	.section	.text.performOneWireReset,"ax",@progbits
.global	performOneWireReset
	.type	performOneWireReset, @function
performOneWireReset:
.LFB24:
	.loc 1 194 0
	.cfi_startproc
.LVL75:
	push r28
.LCFI18:
	.cfi_def_cfa_offset 4
	.cfi_offset 28, -3
	push r29
.LCFI19:
	.cfi_def_cfa_offset 5
	.cfi_offset 29, -4
/* prologue: function */
/* frame size = 0 */
/* stack size = 2 */
.L__stack_usage = 2
	movw r28,r24
	.loc 1 195 0
	sts isDevicePresent,__zero_reg__
	.loc 1 196 0
	ldi r30,lo8(internalData)
	ldi r31,hi8(internalData)
	std Z+1,r25
	st Z,r24
	.loc 1 197 0
	std Z+3,r23
	std Z+2,r22
	.loc 1 199 0
	ldi r24,lo8(gs(onResetPulse500usHaveElapsedEvent))
	ldi r25,hi8(gs(onResetPulse500usHaveElapsedEvent))
.LVL76:
	call defineCallbackOnTimer2CaptureCompareAMatch
.LVL77:
	.loc 1 200 0
	movw r24,r28
	call makeOutputLow
.LVL78:
	.loc 1 206 0
	call letTimer2GenerateInterruptEvery500us
.LVL79:
	.loc 1 207 0
	call enableTimer2CaptureCompareAInterrupt
.LVL80:
/* epilogue start */
	.loc 1 208 0
	pop r29
	pop r28
.LVL81:
	ret
	.cfi_endproc
.LFE24:
	.size	performOneWireReset, .-performOneWireReset
	.section	.text.performFullOneWireReset,"ax",@progbits
.global	performFullOneWireReset
	.type	performFullOneWireReset, @function
performFullOneWireReset:
.LFB26:
	.loc 1 216 0
	.cfi_startproc
.LVL82:
/* prologue: function */
/* frame size = 0 */
/* stack size = 0 */
.L__stack_usage = 0
	.loc 1 217 0
	ldi r30,lo8(internalDataFullReset)
	ldi r31,hi8(internalDataFullReset)
	std Z+1,r25
	st Z,r24
	.loc 1 218 0
	std Z+3,r23
	std Z+2,r22
	.loc 1 219 0
	ldi r22,lo8(gs(awaitOneWirePresencePulseWrapper))
	ldi r23,hi8(gs(awaitOneWirePresencePulseWrapper))
.LVL83:
	call performOneWireReset
.LVL84:
	ret
	.cfi_endproc
.LFE26:
	.size	performFullOneWireReset, .-performFullOneWireReset
	.section	.bss.lastOneWirePin.2030,"aw",@nobits
	.type	lastOneWirePin.2030, @object
	.size	lastOneWirePin.2030, 2
lastOneWirePin.2030:
	.zero	2
	.section	.bss.lastCallback.2029,"aw",@nobits
	.type	lastCallback.2029, @object
	.size	lastCallback.2029, 2
lastCallback.2029:
	.zero	2
	.section	.bss.lastByte.2027,"aw",@nobits
	.type	lastByte.2027, @object
	.size	lastByte.2027, 1
lastByte.2027:
	.zero	1
	.section	.bss.positionWithinByte.2028,"aw",@nobits
	.type	positionWithinByte.2028, @object
	.size	positionWithinByte.2028, 1
positionWithinByte.2028:
	.zero	1
	.section	.bss.readBit.2017,"aw",@nobits
	.type	readBit.2017, @object
	.size	readBit.2017, 1
readBit.2017:
	.zero	1
	.section	.bss.lastOneWirePin.2016,"aw",@nobits
	.type	lastOneWirePin.2016, @object
	.size	lastOneWirePin.2016, 2
lastOneWirePin.2016:
	.zero	2
	.section	.bss.lastCallback.2015,"aw",@nobits
	.type	lastCallback.2015, @object
	.size	lastCallback.2015, 2
lastCallback.2015:
	.zero	2
	.section	.bss.lastByte.2013,"aw",@nobits
	.type	lastByte.2013, @object
	.size	lastByte.2013, 2
lastByte.2013:
	.zero	2
	.section	.bss.posistionWithinByte.2014,"aw",@nobits
	.type	posistionWithinByte.2014, @object
	.size	posistionWithinByte.2014, 1
posistionWithinByte.2014:
	.zero	1
.global	isDevicePresent
	.section	.bss.isDevicePresent,"aw",@nobits
	.type	isDevicePresent, @object
	.size	isDevicePresent, 1
isDevicePresent:
	.zero	1
	.comm	internalDataFullReset,5,1
	.comm	internalData,5,1
	.text
.Letext0:
	.file 3 "c:\\program files (x86)\\atmel\\studio\\7.0\\toolchain\\avr8\\avr8-gnu-toolchain\\avr\\include\\stdint.h"
	.file 4 ".././marcsLanguageExtension.h"
	.file 5 ".././GPIO Pin.h"
	.file 6 ".././Timer2.h"